target datalayout = "e-m:e-p270:32:32-p271:32:32-p272:64:64-i64:64-i128:128-f80:128-n8:16:32:64-S128"
target triple = "x86_64-unknown-linux-gnu"

%class.btGeneric6DofSpring2Constraint = type <{ %class.btTypedConstraint, %class.btTransform, %class.btTransform, [3 x %class.btJacobianEntry], [3 x %class.btJacobianEntry], %class.btTranslationalLimitMotor2, [3 x %class.btRotationalLimitMotor2], i32, %class.btTransform, %class.btTransform, %class.btVector3, [3 x %class.btVector3], %class.btVector3, float, float, i8, [3 x i8], i32, [4 x i8] }>
%class.btTypedConstraint = type { ptr, %struct.btTypedObject, i32, %union.anon.0, float, i8, i8, i32, ptr, ptr, float, float, ptr }
%struct.btTypedObject = type { i32 }
%union.anon.0 = type { ptr }
%class.btJacobianEntry = type { %class.btVector3, %class.btVector3, %class.btVector3, %class.btVector3, %class.btVector3, float }
%class.btTranslationalLimitMotor2 = type { %class.btVector3, %class.btVector3, %class.btVector3, %class.btVector3, %class.btVector3, %class.btVector3, %class.btVector3, [3 x i8], [3 x i8], [3 x i8], %class.btVector3, %class.btVector3, [3 x i8], %class.btVector3, [3 x i8], %class.btVector3, %class.btVector3, %class.btVector3, %class.btVector3, %class.btVector3, %class.btVector3, [3 x i32] }
%class.btRotationalLimitMotor2 = type { float, float, float, float, float, float, float, i8, float, float, i8, float, i8, float, i8, float, i8, float, float, float, float, i32 }
%class.btTransform = type { %class.btMatrix3x3, %class.btVector3 }
%class.btMatrix3x3 = type { [3 x %class.btVector3] }
%class.btVector3 = type { [4 x float] }
%class.btCollisionObject = type <{ ptr, %class.btTransform, %class.btTransform, %class.btVector3, %class.btVector3, %class.btVector3, i32, float, ptr, ptr, ptr, ptr, i32, i32, i32, i32, i32, float, float, float, float, float, float, float, i32, [4 x i8], ptr, i32, i32, i32, float, float, float, i32, [4 x i8], %class.btAlignedObjectArray, i32, %class.btVector3, [4 x i8] }>
%class.btAlignedObjectArray = type <{ %class.btAlignedAllocator, [3 x i8], i32, i32, [4 x i8], ptr, i8, [7 x i8] }>
%class.btAlignedAllocator = type { i8 }

; Function Attrs: mustprogress nounwind uwtable
define linkonce_odr dso_local noundef nonnull align 4 dereferenceable(64) ptr @_ZNK11btRigidBody24getCenterOfMassTransformEv(ptr noundef nonnull align 8 dereferenceable(744) %this) #1 comdat align 2 {
entry:
  %this.addr = alloca ptr, align 8
  store ptr %this, ptr %this.addr, align 8
  %this1 = load ptr, ptr %this.addr, align 8
  %m_worldTransform = getelementptr inbounds %class.btCollisionObject, ptr %this1, i32 0, i32 1
  ret ptr %m_worldTransform
}

; Function Attrs: mustprogress nounwind uwtable
define linkonce_odr dso_local noundef ptr @_ZN9btVector3cvPfEv(ptr noundef nonnull align 4 dereferenceable(16) %this) #1 comdat align 2 {
entry:
  %this.addr = alloca ptr, align 8
  store ptr %this, ptr %this.addr, align 8
  %this1 = load ptr, ptr %this.addr, align 8
  %m_floats = getelementptr inbounds %class.btVector3, ptr %this1, i32 0, i32 0
  %arrayidx = getelementptr inbounds [4 x float], ptr %m_floats, i64 0, i64 0
  ret ptr %arrayidx
}

; Function Attrs: mustprogress uwtable
define dso_local void @_ZN30btGeneric6DofSpring2Constraint19calculateTransformsEv(ptr noundef nonnull align 8 dereferenceable(1484) %this) #2 align 2 {
entry:
  %this.addr = alloca ptr, align 8
  store ptr %this, ptr %this.addr, align 8
  %this1 = load ptr, ptr %this.addr, align 8
  %m_rbA = getelementptr inbounds %class.btTypedConstraint, ptr %this1, i32 0, i32 8
  %0 = load ptr, ptr %m_rbA, align 8
  %call = call noundef nonnull align 4 dereferenceable(64) ptr @_ZNK11btRigidBody24getCenterOfMassTransformEv(ptr noundef nonnull align 8 dereferenceable(744) %0)
  %m_rbB = getelementptr inbounds %class.btTypedConstraint, ptr %this1, i32 0, i32 9
  %1 = load ptr, ptr %m_rbB, align 8
  %call2 = call noundef nonnull align 4 dereferenceable(64) ptr @_ZNK11btRigidBody24getCenterOfMassTransformEv(ptr noundef nonnull align 8 dereferenceable(744) %1)
  call void @_ZN30btGeneric6DofSpring2Constraint19calculateTransformsERK11btTransformS2_(ptr noundef nonnull align 8 dereferenceable(1484) %this1, ptr noundef nonnull align 4 dereferenceable(64) %call, ptr noundef nonnull align 4 dereferenceable(64) %call2)
  ret void
}

; Function Attrs: mustprogress uwtable
define dso_local void @_ZN30btGeneric6DofSpring2Constraint19setEquilibriumPointEv(ptr noundef nonnull align 8 dereferenceable(1484) %this) #2 align 2 {
entry:
  %this.addr = alloca ptr, align 8
  %i = alloca i32, align 4
  store ptr %this, ptr %this.addr, align 8
  %this1 = load ptr, ptr %this.addr, align 8
  call void @_ZN30btGeneric6DofSpring2Constraint19calculateTransformsEv(ptr noundef nonnull align 8 dereferenceable(1484) %this1)
  store i32 0, ptr %i, align 4
  br label %for.cond

for.cond:                                         ; preds = %for.inc, %entry
  %0 = load i32, ptr %i, align 4
  %cmp = icmp slt i32 %0, 3
  br i1 %cmp, label %for.body, label %for.end

for.body:                                         ; preds = %for.cond
  %m_calculatedLinearDiff = getelementptr inbounds %class.btGeneric6DofSpring2Constraint, ptr %this1, i32 0, i32 12
  %call = call noundef ptr @_ZN9btVector3cvPfEv(ptr noundef nonnull align 4 dereferenceable(16) %m_calculatedLinearDiff)
  %1 = load i32, ptr %i, align 4
  %idxprom = sext i32 %1 to i64
  %arrayidx = getelementptr inbounds float, ptr %call, i64 %idxprom
  %2 = load float, ptr %arrayidx, align 4
  %m_linearLimits = getelementptr inbounds %class.btGeneric6DofSpring2Constraint, ptr %this1, i32 0, i32 5
  %m_equilibriumPoint = getelementptr inbounds %class.btTranslationalLimitMotor2, ptr %m_linearLimits, i32 0, i32 15
  %call2 = call noundef ptr @_ZN9btVector3cvPfEv(ptr noundef nonnull align 4 dereferenceable(16) %m_equilibriumPoint)
  %3 = load i32, ptr %i, align 4
  %idxprom3 = sext i32 %3 to i64
  %arrayidx4 = getelementptr inbounds float, ptr %call2, i64 %idxprom3
  store float %2, ptr %arrayidx4, align 4
  br label %for.inc

for.inc:                                          ; preds = %for.body
  %4 = load i32, ptr %i, align 4
  %inc = add nsw i32 %4, 1
  store i32 %inc, ptr %i, align 4
  br label %for.cond, !llvm.loop !14

for.end:                                          ; preds = %for.cond
  store i32 0, ptr %i, align 4
  br label %for.cond5

for.cond5:                                        ; preds = %for.inc14, %for.end
  %5 = load i32, ptr %i, align 4
  %cmp6 = icmp slt i32 %5, 3
  br i1 %cmp6, label %for.body7, label %for.end16

for.body7:                                        ; preds = %for.cond5
  %m_calculatedAxisAngleDiff = getelementptr inbounds %class.btGeneric6DofSpring2Constraint, ptr %this1, i32 0, i32 10
  %call8 = call noundef ptr @_ZN9btVector3cvPfEv(ptr noundef nonnull align 4 dereferenceable(16) %m_calculatedAxisAngleDiff)
  %6 = load i32, ptr %i, align 4
  %idxprom9 = sext i32 %6 to i64
  %arrayidx10 = getelementptr inbounds float, ptr %call8, i64 %idxprom9
  %7 = load float, ptr %arrayidx10, align 4
  %m_angularLimits = getelementptr inbounds %class.btGeneric6DofSpring2Constraint, ptr %this1, i32 0, i32 6
  %8 = load i32, ptr %i, align 4
  %idxprom11 = sext i32 %8 to i64
  %arrayidx12 = getelementptr inbounds [3 x %class.btRotationalLimitMotor2], ptr %m_angularLimits, i64 0, i64 %idxprom11
  %m_equilibriumPoint13 = getelementptr inbounds %class.btRotationalLimitMotor2, ptr %arrayidx12, i32 0, i32 17
  store float %7, ptr %m_equilibriumPoint13, align 4
  br label %for.inc14

for.inc14:                                        ; preds = %for.body7
  %9 = load i32, ptr %i, align 4
  %inc15 = add nsw i32 %9, 1
  store i32 %inc15, ptr %i, align 4
  br label %for.cond5, !llvm.loop !15

for.end16:                                        ; preds = %for.cond5
  ret void
}