; Function Attrs: mustprogress nofree nounwind uwtable
define dso_local void @_ZN30btGeneric6DofSpring2Constraint19setEquilibriumPointEv(ptr noundef nonnull align 8 dereferenceable(1484) %this) local_unnamed_addr #3 align 2 {
entry:
  %m_rbA.i = getelementptr inbounds i8, ptr %this, i64 40
  %0 = load ptr, ptr %m_rbA.i, align 8
  %m_worldTransform.i.i = getelementptr inbounds i8, ptr %0, i64 8
  %m_rbB.i = getelementptr inbounds i8, ptr %this, i64 48
  %1 = load ptr, ptr %m_rbB.i, align 8
  %m_worldTransform.i1.i = getelementptr inbounds i8, ptr %1, i64 8
  tail call void @_ZN30btGeneric6DofSpring2Constraint19calculateTransformsERK11btTransformS2_(ptr noundef nonnull align 8 dereferenceable(1484) %this, ptr noundef nonnull align 4 dereferenceable(64) %m_worldTransform.i.i, ptr noundef nonnull align 4 dereferenceable(64) %m_worldTransform.i1.i)
  %m_calculatedLinearDiff = getelementptr inbounds i8, ptr %this, i64 1452
  %m_equilibriumPoint = getelementptr inbounds i8, ptr %this, i64 884
  tail call void @llvm.memcpy.p0.p0.i64(ptr noundef nonnull align 4 dereferenceable(12) %m_equilibriumPoint, ptr noundef nonnull align 4 dereferenceable(12) %m_calculatedLinearDiff, i64 12, i1 false)
  %m_calculatedAxisAngleDiff = getelementptr inbounds i8, ptr %this, i64 1388
  %m_angularLimits = getelementptr inbounds i8, ptr %this, i64 992
  br label %for.body7

for.body7:                                        ; preds = %entry, %for.body7
  %indvars.iv = phi i64 [ 0, %entry ], [ %indvars.iv.next, %for.body7 ]
  %arrayidx10 = getelementptr inbounds float, ptr %m_calculatedAxisAngleDiff, i64 %indvars.iv
  %2 = load float, ptr %arrayidx10, align 4
  %m_equilibriumPoint13 = getelementptr inbounds [3 x %class.btRotationalLimitMotor2], ptr %m_angularLimits, i64 0, i64 %indvars.iv, i32 17
  store float %2, ptr %m_equilibriumPoint13, align 4
  %indvars.iv.next = add nuw nsw i64 %indvars.iv, 1
  %exitcond.not = icmp eq i64 %indvars.iv.next, 3
  br i1 %exitcond.not, label %for.end16, label %for.body7, !llvm.loop !52

for.end16:                                        ; preds = %for.body7
  ret void
}